target datalayout = "e-m:e-p270:32:32-p271:32:32-p272:64:64-i64:64-i128:128-f80:128-n8:16:32:64-S128"
target triple = "x86_64-pc-linux-gnu"

@_ZN19Abstract_VM_Version9_cpu_descE = hidden global [4096 x i8] zeroinitializer, align 16

; Function Attrs: mustprogress nounwind uwtable
define hidden noundef ptr @_ZN19Abstract_VM_Version15cpu_descriptionEv() #1 align 2 {
  %1 = alloca ptr, align 8
  %2 = alloca ptr, align 8
  %3 = call noundef ptr @_Z12AllocateHeapm8MEMFLAGSN17AllocFailStrategy13AllocFailEnumE(i64 noundef 4096, i8 noundef zeroext 16, i32 noundef 1)
  store ptr %3, ptr %2, align 8
  %4 = load ptr, ptr %2, align 8
  %5 = icmp eq ptr null, %4
  br i1 %5, label %6, label %7

6:                                                ; preds = %0
  store ptr null, ptr %1, align 8
  br label %11

7:                                                ; preds = %0
  %8 = load ptr, ptr %2, align 8
  %9 = call ptr @strncpy(ptr noundef %8, ptr noundef @_ZN19Abstract_VM_Version9_cpu_descE, i64 noundef 4096) #8
  %10 = load ptr, ptr %2, align 8
  store ptr %10, ptr %1, align 8
  br label %11

11:                                               ; preds = %7, %6
  %12 = load ptr, ptr %1, align 8
  ret ptr %12
}