; Function Attrs: mustprogress nounwind uwtable
define hidden noundef ptr @_ZN19Abstract_VM_Version15cpu_descriptionEv() local_unnamed_addr #1 align 2 {
  %1 = tail call noundef ptr @_Z12AllocateHeapm8MEMFLAGSN17AllocFailStrategy13AllocFailEnumE(i64 noundef 4096, i8 noundef zeroext 16, i32 noundef 1) #8
  %2 = icmp eq ptr %1, null
  br i1 %2, label %5, label %3

3:                                                ; preds = %0
  %4 = tail call ptr @strncpy(ptr noundef nonnull dereferenceable(1) %1, ptr noundef nonnull dereferenceable(1) @_ZN19Abstract_VM_Version9_cpu_descE, i64 noundef 4096) #8
  br label %5

5:                                                ; preds = %0, %3
  ret ptr %1
}